target datalayout = "e-m:e-p270:32:32-p271:32:32-p272:64:64-i64:64-i128:128-f80:128-n8:16:32:64-S128"
target triple = "x86_64-pc-linux-gnu"

%struct.H5O_linfo_t = type { i8, i8, i64, i64, i64, i64, i64 }
%struct.H5G_t = type { ptr, %struct.H5O_loc_t, %struct.H5G_name_t }
%struct.H5O_loc_t = type { ptr, i64, i8 }
%struct.H5G_name_t = type { ptr, ptr, i32 }

@.str = private unnamed_addr constant [101 x i8] c"generated/home/dtcxzyw/WorkSpace/Projects/compilers/llvm-opt-benchmark/bench/hdf5/hdf5/src/H5Gtest.c\00", align 1
@H5E_ARGS_g = external global i64, align 8
@H5E_BADTYPE_g = external global i64, align 8
@.str.1 = private unnamed_addr constant [12 x i8] c"not a group\00", align 1
@H5E_SYM_g = external global i64, align 8
@H5E_CANTSET_g = external global i64, align 8
@.str.2 = private unnamed_addr constant [22 x i8] c"can't set API context\00", align 1
@H5E_CANTINIT_g = external global i64, align 8
@.str.3 = private unnamed_addr constant [29 x i8] c"unable to read object header\00", align 1
@H5E_BADMESG_g = external global i64, align 8
@.str.6 = private unnamed_addr constant [20 x i8] c"can't get link info\00", align 1
@H5E_CANTRESET_g = external global i64, align 8
@.str.10 = private unnamed_addr constant [24 x i8] c"can't reset API context\00", align 1
@__func__.H5G__is_new_dense_test = private unnamed_addr constant [23 x i8] c"H5G__is_new_dense_test\00", align 1

; Function Attrs: nounwind uwtable
define i32 @H5G__is_new_dense_test(i64 noundef %0) #0 {
  %2 = alloca i64, align 8
  %3 = alloca ptr, align 8
  %4 = alloca i32, align 4
  %5 = alloca i8, align 1
  %6 = alloca i32, align 4
  %7 = alloca i8, align 1
  %8 = alloca %struct.H5O_linfo_t, align 8
  store i64 %0, ptr %2, align 8
  store ptr null, ptr %3, align 8
  store i32 0, ptr %4, align 4
  store i8 0, ptr %5, align 1
  store i32 1, ptr %6, align 4
  store i8 0, ptr %7, align 1
  %9 = load i64, ptr %2, align 8
  %10 = call ptr @H5VL_object_verify(i64 noundef %9, i32 noundef 2)
  store ptr %10, ptr %3, align 8
  %11 = icmp eq ptr null, %10
  br i1 %11, label %12, label %27

12:                                               ; preds = %1
  br label %13

13:                                               ; preds = %12
  br label %14

14:                                               ; preds = %13
  br label %15

15:                                               ; preds = %14
  %16 = load i64, ptr @H5E_ARGS_g, align 8
  %17 = load i64, ptr @H5E_BADTYPE_g, align 8
  %18 = call i32 (ptr, ptr, i32, i64, i64, ptr, ...) @H5E_printf_stack(ptr noundef @.str, ptr noundef @__func__.H5G__is_new_dense_test, i32 noundef 339, i64 noundef %16, i64 noundef %17, ptr noundef @.str.1)
  br label %19

19:                                               ; preds = %15
  store i8 1, ptr %7, align 1
  %20 = load i8, ptr %7, align 1
  %21 = trunc i8 %20 to i1
  %22 = zext i1 %21 to i8
  store i8 %22, ptr %7, align 1
  br label %23

23:                                               ; preds = %19
  br label %24

24:                                               ; preds = %23
  store i32 -1, ptr %6, align 4
  br label %156

25:                                               ; No predecessors!
  br label %26

26:                                               ; preds = %25
  br label %27

27:                                               ; preds = %26, %1
  %28 = call i32 @H5CX_push()
  %29 = icmp slt i32 %28, 0
  br i1 %29, label %30, label %45

30:                                               ; preds = %27
  br label %31

31:                                               ; preds = %30
  br label %32

32:                                               ; preds = %31
  br label %33

33:                                               ; preds = %32
  %34 = load i64, ptr @H5E_SYM_g, align 8
  %35 = load i64, ptr @H5E_CANTSET_g, align 8
  %36 = call i32 (ptr, ptr, i32, i64, i64, ptr, ...) @H5E_printf_stack(ptr noundef @.str, ptr noundef @__func__.H5G__is_new_dense_test, i32 noundef 343, i64 noundef %34, i64 noundef %35, ptr noundef @.str.2)
  br label %37

37:                                               ; preds = %33
  store i8 1, ptr %7, align 1
  %38 = load i8, ptr %7, align 1
  %39 = trunc i8 %38 to i1
  %40 = zext i1 %39 to i8
  store i8 %40, ptr %7, align 1
  br label %41

41:                                               ; preds = %37
  br label %42

42:                                               ; preds = %41
  store i32 -1, ptr %6, align 4
  br label %156

43:                                               ; No predecessors!
  br label %44

44:                                               ; preds = %43
  br label %45

45:                                               ; preds = %44, %27
  store i8 1, ptr %5, align 1
  %46 = load ptr, ptr %3, align 8
  %47 = getelementptr inbounds %struct.H5G_t, ptr %46, i32 0, i32 1
  %48 = call i32 @H5O_msg_exists(ptr noundef %47, i32 noundef 17)
  store i32 %48, ptr %4, align 4
  %49 = icmp slt i32 %48, 0
  br i1 %49, label %50, label %65

50:                                               ; preds = %45
  br label %51

51:                                               ; preds = %50
  br label %52

52:                                               ; preds = %51
  br label %53

53:                                               ; preds = %52
  %54 = load i64, ptr @H5E_SYM_g, align 8
  %55 = load i64, ptr @H5E_CANTINIT_g, align 8
  %56 = call i32 (ptr, ptr, i32, i64, i64, ptr, ...) @H5E_printf_stack(ptr noundef @.str, ptr noundef @__func__.H5G__is_new_dense_test, i32 noundef 348, i64 noundef %54, i64 noundef %55, ptr noundef @.str.3)
  br label %57

57:                                               ; preds = %53
  store i8 1, ptr %7, align 1
  %58 = load i8, ptr %7, align 1
  %59 = trunc i8 %58 to i1
  %60 = zext i1 %59 to i8
  store i8 %60, ptr %7, align 1
  br label %61

61:                                               ; preds = %57
  br label %62

62:                                               ; preds = %61
  store i32 -1, ptr %6, align 4
  br label %156

63:                                               ; No predecessors!
  br label %64

64:                                               ; preds = %63
  br label %65

65:                                               ; preds = %64, %45
  %66 = load i32, ptr %4, align 4
  %67 = icmp sgt i32 %66, 0
  br i1 %67, label %68, label %71

68:                                               ; preds = %65
  br label %69

69:                                               ; preds = %68
  store i32 0, ptr %6, align 4
  br label %156

70:                                               ; No predecessors!
  br label %71

71:                                               ; preds = %70, %65
  %72 = load ptr, ptr %3, align 8
  %73 = getelementptr inbounds %struct.H5G_t, ptr %72, i32 0, i32 1
  %74 = call i32 @H5O_msg_exists(ptr noundef %73, i32 noundef 6)
  store i32 %74, ptr %4, align 4
  %75 = icmp slt i32 %74, 0
  br i1 %75, label %76, label %91

76:                                               ; preds = %71
  br label %77

77:                                               ; preds = %76
  br label %78

78:                                               ; preds = %77
  br label %79

79:                                               ; preds = %78
  %80 = load i64, ptr @H5E_SYM_g, align 8
  %81 = load i64, ptr @H5E_CANTINIT_g, align 8
  %82 = call i32 (ptr, ptr, i32, i64, i64, ptr, ...) @H5E_printf_stack(ptr noundef @.str, ptr noundef @__func__.H5G__is_new_dense_test, i32 noundef 354, i64 noundef %80, i64 noundef %81, ptr noundef @.str.3)
  br label %83

83:                                               ; preds = %79
  store i8 1, ptr %7, align 1
  %84 = load i8, ptr %7, align 1
  %85 = trunc i8 %84 to i1
  %86 = zext i1 %85 to i8
  store i8 %86, ptr %7, align 1
  br label %87

87:                                               ; preds = %83
  br label %88

88:                                               ; preds = %87
  store i32 -1, ptr %6, align 4
  br label %156

89:                                               ; No predecessors!
  br label %90

90:                                               ; preds = %89
  br label %91

91:                                               ; preds = %90, %71
  %92 = load i32, ptr %4, align 4
  %93 = icmp sgt i32 %92, 0
  br i1 %93, label %94, label %97

94:                                               ; preds = %91
  br label %95

95:                                               ; preds = %94
  store i32 0, ptr %6, align 4
  br label %156

96:                                               ; No predecessors!
  br label %97

97:                                               ; preds = %96, %91
  %98 = load ptr, ptr %3, align 8
  %99 = getelementptr inbounds %struct.H5G_t, ptr %98, i32 0, i32 1
  %100 = call i32 @H5O_msg_exists(ptr noundef %99, i32 noundef 2)
  store i32 %100, ptr %4, align 4
  %101 = icmp slt i32 %100, 0
  br i1 %101, label %102, label %117

102:                                              ; preds = %97
  br label %103

103:                                              ; preds = %102
  br label %104

104:                                              ; preds = %103
  br label %105

105:                                              ; preds = %104
  %106 = load i64, ptr @H5E_SYM_g, align 8
  %107 = load i64, ptr @H5E_CANTINIT_g, align 8
  %108 = call i32 (ptr, ptr, i32, i64, i64, ptr, ...) @H5E_printf_stack(ptr noundef @.str, ptr noundef @__func__.H5G__is_new_dense_test, i32 noundef 360, i64 noundef %106, i64 noundef %107, ptr noundef @.str.3)
  br label %109

109:                                              ; preds = %105
  store i8 1, ptr %7, align 1
  %110 = load i8, ptr %7, align 1
  %111 = trunc i8 %110 to i1
  %112 = zext i1 %111 to i8
  store i8 %112, ptr %7, align 1
  br label %113

113:                                              ; preds = %109
  br label %114

114:                                              ; preds = %113
  store i32 -1, ptr %6, align 4
  br label %156

115:                                              ; No predecessors!
  br label %116

116:                                              ; preds = %115
  br label %117

117:                                              ; preds = %116, %97
  %118 = load i32, ptr %4, align 4
  %119 = icmp sgt i32 %118, 0
  br i1 %119, label %120, label %155

120:                                              ; preds = %117
  %121 = load ptr, ptr %3, align 8
  %122 = getelementptr inbounds %struct.H5G_t, ptr %121, i32 0, i32 1
  %123 = call i32 @H5G__obj_get_linfo(ptr noundef %122, ptr noundef %8)
  %124 = icmp slt i32 %123, 0
  br i1 %124, label %125, label %140

125:                                              ; preds = %120
  br label %126

126:                                              ; preds = %125
  br label %127

127:                                              ; preds = %126
  br label %128

128:                                              ; preds = %127
  %129 = load i64, ptr @H5E_SYM_g, align 8
  %130 = load i64, ptr @H5E_BADMESG_g, align 8
  %131 = call i32 (ptr, ptr, i32, i64, i64, ptr, ...) @H5E_printf_stack(ptr noundef @.str, ptr noundef @__func__.H5G__is_new_dense_test, i32 noundef 366, i64 noundef %129, i64 noundef %130, ptr noundef @.str.6)
  br label %132

132:                                              ; preds = %128
  store i8 1, ptr %7, align 1
  %133 = load i8, ptr %7, align 1
  %134 = trunc i8 %133 to i1
  %135 = zext i1 %134 to i8
  store i8 %135, ptr %7, align 1
  br label %136

136:                                              ; preds = %132
  br label %137

137:                                              ; preds = %136
  store i32 -1, ptr %6, align 4
  br label %156

138:                                              ; No predecessors!
  br label %139

139:                                              ; preds = %138
  br label %140

140:                                              ; preds = %139, %120
  %141 = getelementptr inbounds %struct.H5O_linfo_t, ptr %8, i32 0, i32 5
  %142 = load i64, ptr %141, align 8
  %143 = icmp ne i64 %142, -1
  br i1 %143, label %147, label %144

144:                                              ; preds = %140
  br label %145

145:                                              ; preds = %144
  store i32 0, ptr %6, align 4
  br label %156

146:                                              ; No predecessors!
  br label %147

147:                                              ; preds = %146, %140
  %148 = getelementptr inbounds %struct.H5O_linfo_t, ptr %8, i32 0, i32 6
  %149 = load i64, ptr %148, align 8
  %150 = icmp ne i64 %149, -1
  br i1 %150, label %154, label %151

151:                                              ; preds = %147
  br label %152

152:                                              ; preds = %151
  store i32 0, ptr %6, align 4
  br label %156

153:                                              ; No predecessors!
  br label %154

154:                                              ; preds = %153, %147
  br label %155

155:                                              ; preds = %154, %117
  br label %156

156:                                              ; preds = %155, %152, %145, %137, %114, %95, %88, %69, %62, %42, %24
  %157 = load i8, ptr %5, align 1
  %158 = trunc i8 %157 to i1
  br i1 %158, label %159, label %175

159:                                              ; preds = %156
  %160 = call i32 @H5CX_pop(i1 noundef zeroext false)
  %161 = icmp slt i32 %160, 0
  br i1 %161, label %162, label %175

162:                                              ; preds = %159
  br label %163

163:                                              ; preds = %162
  br label %164

164:                                              ; preds = %163
  br label %165

165:                                              ; preds = %164
  %166 = load i64, ptr @H5E_SYM_g, align 8
  %167 = load i64, ptr @H5E_CANTRESET_g, align 8
  %168 = call i32 (ptr, ptr, i32, i64, i64, ptr, ...) @H5E_printf_stack(ptr noundef @.str, ptr noundef @__func__.H5G__is_new_dense_test, i32 noundef 377, i64 noundef %166, i64 noundef %167, ptr noundef @.str.10)
  br label %169

169:                                              ; preds = %165
  store i8 1, ptr %7, align 1
  %170 = load i8, ptr %7, align 1
  %171 = trunc i8 %170 to i1
  %172 = zext i1 %171 to i8
  store i8 %172, ptr %7, align 1
  br label %173

173:                                              ; preds = %169
  store i32 -1, ptr %6, align 4
  br label %174

174:                                              ; preds = %173
  br label %175

175:                                              ; preds = %174, %159, %156
  %176 = load i32, ptr %6, align 4
  ret i32 %176
}