; Function Attrs: nounwind uwtable
define range(i32 -1, 2) i32 @H5G__is_new_dense_test(i64 noundef %0) local_unnamed_addr #0 {
  %2 = alloca %struct.H5O_linfo_t, align 8
  %3 = tail call ptr @H5VL_object_verify(i64 noundef %0, i32 noundef 2) #4
  %4 = icmp eq ptr %3, null
  br i1 %4, label %5, label %9

5:                                                ; preds = %1
  %6 = load i64, ptr @H5E_ARGS_g, align 8
  %7 = load i64, ptr @H5E_BADTYPE_g, align 8
  %8 = tail call i32 (ptr, ptr, i32, i64, i64, ptr, ...) @H5E_printf_stack(ptr noundef nonnull @.str, ptr noundef nonnull @__func__.H5G__is_new_dense_test, i32 noundef 339, i64 noundef %6, i64 noundef %7, ptr noundef nonnull @.str.1) #4
  br label %61

9:                                                ; preds = %1
  %10 = tail call i32 @H5CX_push() #4
  %11 = icmp slt i32 %10, 0
  br i1 %11, label %12, label %16

12:                                               ; preds = %9
  %13 = load i64, ptr @H5E_SYM_g, align 8
  %14 = load i64, ptr @H5E_CANTSET_g, align 8
  %15 = tail call i32 (ptr, ptr, i32, i64, i64, ptr, ...) @H5E_printf_stack(ptr noundef nonnull @.str, ptr noundef nonnull @__func__.H5G__is_new_dense_test, i32 noundef 343, i64 noundef %13, i64 noundef %14, ptr noundef nonnull @.str.2) #4
  br label %61

16:                                               ; preds = %9
  %17 = getelementptr inbounds i8, ptr %3, i64 8
  %18 = tail call i32 @H5O_msg_exists(ptr noundef nonnull %17, i32 noundef 17) #4
  %19 = icmp slt i32 %18, 0
  br i1 %19, label %20, label %24

20:                                               ; preds = %16
  %21 = load i64, ptr @H5E_SYM_g, align 8
  %22 = load i64, ptr @H5E_CANTINIT_g, align 8
  %23 = tail call i32 (ptr, ptr, i32, i64, i64, ptr, ...) @H5E_printf_stack(ptr noundef nonnull @.str, ptr noundef nonnull @__func__.H5G__is_new_dense_test, i32 noundef 348, i64 noundef %21, i64 noundef %22, ptr noundef nonnull @.str.3) #4
  br label %54

24:                                               ; preds = %16
  %.not = icmp eq i32 %18, 0
  br i1 %.not, label %25, label %54

25:                                               ; preds = %24
  %26 = tail call i32 @H5O_msg_exists(ptr noundef nonnull %17, i32 noundef 6) #4
  %27 = icmp slt i32 %26, 0
  br i1 %27, label %28, label %32

28:                                               ; preds = %25
  %29 = load i64, ptr @H5E_SYM_g, align 8
  %30 = load i64, ptr @H5E_CANTINIT_g, align 8
  %31 = tail call i32 (ptr, ptr, i32, i64, i64, ptr, ...) @H5E_printf_stack(ptr noundef nonnull @.str, ptr noundef nonnull @__func__.H5G__is_new_dense_test, i32 noundef 354, i64 noundef %29, i64 noundef %30, ptr noundef nonnull @.str.3) #4
  br label %54

32:                                               ; preds = %25
  %.not21 = icmp eq i32 %26, 0
  br i1 %.not21, label %33, label %54

33:                                               ; preds = %32
  %34 = tail call i32 @H5O_msg_exists(ptr noundef nonnull %17, i32 noundef 2) #4
  %35 = icmp slt i32 %34, 0
  br i1 %35, label %36, label %40

36:                                               ; preds = %33
  %37 = load i64, ptr @H5E_SYM_g, align 8
  %38 = load i64, ptr @H5E_CANTINIT_g, align 8
  %39 = tail call i32 (ptr, ptr, i32, i64, i64, ptr, ...) @H5E_printf_stack(ptr noundef nonnull @.str, ptr noundef nonnull @__func__.H5G__is_new_dense_test, i32 noundef 360, i64 noundef %37, i64 noundef %38, ptr noundef nonnull @.str.3) #4
  br label %54

40:                                               ; preds = %33
  %.not22 = icmp eq i32 %34, 0
  br i1 %.not22, label %54, label %41

41:                                               ; preds = %40
  %42 = call i32 @H5G__obj_get_linfo(ptr noundef nonnull %17, ptr noundef nonnull %2) #4
  %43 = icmp slt i32 %42, 0
  br i1 %43, label %44, label %48

44:                                               ; preds = %41
  %45 = load i64, ptr @H5E_SYM_g, align 8
  %46 = load i64, ptr @H5E_BADMESG_g, align 8
  %47 = call i32 (ptr, ptr, i32, i64, i64, ptr, ...) @H5E_printf_stack(ptr noundef nonnull @.str, ptr noundef nonnull @__func__.H5G__is_new_dense_test, i32 noundef 366, i64 noundef %45, i64 noundef %46, ptr noundef nonnull @.str.6) #4
  br label %54

48:                                               ; preds = %41
  %49 = getelementptr inbounds i8, ptr %2, i64 32
  %50 = load i64, ptr %49, align 8
  %.not23 = icmp eq i64 %50, -1
  br i1 %.not23, label %54, label %51

51:                                               ; preds = %48
  %52 = getelementptr inbounds i8, ptr %2, i64 40
  %53 = load i64, ptr %52, align 8
  %.not24 = icmp ne i64 %53, -1
  %spec.select = zext i1 %.not24 to i32
  br label %54

54:                                               ; preds = %20, %28, %36, %44, %40, %24, %32, %48, %51
  %.0.ph = phi i32 [ %spec.select, %51 ], [ 0, %48 ], [ 0, %32 ], [ 0, %24 ], [ 1, %40 ], [ -1, %44 ], [ -1, %36 ], [ -1, %28 ], [ -1, %20 ]
  %55 = call i32 @H5CX_pop(i1 noundef zeroext false) #4
  %56 = icmp slt i32 %55, 0
  br i1 %56, label %57, label %61

57:                                               ; preds = %54
  %58 = load i64, ptr @H5E_SYM_g, align 8
  %59 = load i64, ptr @H5E_CANTRESET_g, align 8
  %60 = call i32 (ptr, ptr, i32, i64, i64, ptr, ...) @H5E_printf_stack(ptr noundef nonnull @.str, ptr noundef nonnull @__func__.H5G__is_new_dense_test, i32 noundef 377, i64 noundef %58, i64 noundef %59, ptr noundef nonnull @.str.10) #4
  br label %61

61:                                               ; preds = %5, %12, %57, %54
  %.1 = phi i32 [ -1, %57 ], [ %.0.ph, %54 ], [ -1, %5 ], [ -1, %12 ]
  ret i32 %.1
}